target datalayout = "e-m:e-p270:32:32-p271:32:32-p272:64:64-i64:64-i128:128-f80:128-n8:16:32:64-S128"
target triple = "x86_64-pc-linux-gnu"

; Function Attrs: inlinehint nounwind uwtable
define internal i32 @Abc_Var2Lit(i32 noundef %0, i32 noundef %1) #2 {
  %3 = alloca i32, align 4
  %4 = alloca i32, align 4
  store i32 %0, ptr %3, align 4, !tbaa !10
  store i32 %1, ptr %4, align 4, !tbaa !10
  %5 = load i32, ptr %3, align 4, !tbaa !10
  %6 = load i32, ptr %3, align 4, !tbaa !10
  %7 = add nsw i32 %5, %6
  %8 = load i32, ptr %4, align 4, !tbaa !10
  %9 = add nsw i32 %7, %8
  ret i32 %9
}

; Function Attrs: inlinehint nounwind uwtable
define internal void @Abc_IsopAddLits(ptr noundef %0, i64 noundef %1, i64 noundef %2, i32 noundef %3) #2 {
  %5 = alloca ptr, align 8
  %6 = alloca i64, align 8
  %7 = alloca i64, align 8
  %8 = alloca i32, align 4
  %9 = alloca i32, align 4
  %10 = alloca i32, align 4
  %11 = alloca i32, align 4
  store ptr %0, ptr %5, align 8, !tbaa !12
  store i64 %1, ptr %6, align 8, !tbaa !3
  store i64 %2, ptr %7, align 8, !tbaa !3
  store i32 %3, ptr %8, align 4, !tbaa !10
  %12 = load ptr, ptr %5, align 8, !tbaa !12
  %13 = icmp ne ptr %12, null
  br i1 %13, label %14, label %57

14:                                               ; preds = %4
  call void @llvm.lifetime.start.p0(i64 4, ptr %9) #9
  call void @llvm.lifetime.start.p0(i64 4, ptr %10) #9
  call void @llvm.lifetime.start.p0(i64 4, ptr %11) #9
  %15 = load i64, ptr %6, align 8, !tbaa !3
  %16 = call i32 @Abc_CostCubes(i64 noundef %15)
  store i32 %16, ptr %10, align 4, !tbaa !10
  %17 = load i64, ptr %7, align 8, !tbaa !3
  %18 = call i32 @Abc_CostCubes(i64 noundef %17)
  store i32 %18, ptr %11, align 4, !tbaa !10
  store i32 0, ptr %9, align 4, !tbaa !10
  br label %19

19:                                               ; preds = %33, %14
  %20 = load i32, ptr %9, align 4, !tbaa !10
  %21 = load i32, ptr %10, align 4, !tbaa !10
  %22 = icmp slt i32 %20, %21
  br i1 %22, label %23, label %36

23:                                               ; preds = %19
  %24 = load i32, ptr %8, align 4, !tbaa !10
  %25 = call i32 @Abc_Var2Lit(i32 noundef %24, i32 noundef 0)
  %26 = shl i32 1, %25
  %27 = load ptr, ptr %5, align 8, !tbaa !12
  %28 = load i32, ptr %9, align 4, !tbaa !10
  %29 = sext i32 %28 to i64
  %30 = getelementptr inbounds i32, ptr %27, i64 %29
  %31 = load i32, ptr %30, align 4, !tbaa !10
  %32 = or i32 %31, %26
  store i32 %32, ptr %30, align 4, !tbaa !10
  br label %33

33:                                               ; preds = %23
  %34 = load i32, ptr %9, align 4, !tbaa !10
  %35 = add nsw i32 %34, 1
  store i32 %35, ptr %9, align 4, !tbaa !10
  br label %19, !llvm.loop !16

36:                                               ; preds = %19
  store i32 0, ptr %9, align 4, !tbaa !10
  br label %37

37:                                               ; preds = %53, %36
  %38 = load i32, ptr %9, align 4, !tbaa !10
  %39 = load i32, ptr %11, align 4, !tbaa !10
  %40 = icmp slt i32 %38, %39
  br i1 %40, label %41, label %56

41:                                               ; preds = %37
  %42 = load i32, ptr %8, align 4, !tbaa !10
  %43 = call i32 @Abc_Var2Lit(i32 noundef %42, i32 noundef 1)
  %44 = shl i32 1, %43
  %45 = load ptr, ptr %5, align 8, !tbaa !12
  %46 = load i32, ptr %10, align 4, !tbaa !10
  %47 = load i32, ptr %9, align 4, !tbaa !10
  %48 = add nsw i32 %46, %47
  %49 = sext i32 %48 to i64
  %50 = getelementptr inbounds i32, ptr %45, i64 %49
  %51 = load i32, ptr %50, align 4, !tbaa !10
  %52 = or i32 %51, %44
  store i32 %52, ptr %50, align 4, !tbaa !10
  br label %53

53:                                               ; preds = %41
  %54 = load i32, ptr %9, align 4, !tbaa !10
  %55 = add nsw i32 %54, 1
  store i32 %55, ptr %9, align 4, !tbaa !10
  br label %37, !llvm.loop !17

56:                                               ; preds = %37
  call void @llvm.lifetime.end.p0(i64 4, ptr %11) #9
  call void @llvm.lifetime.end.p0(i64 4, ptr %10) #9
  call void @llvm.lifetime.end.p0(i64 4, ptr %9) #9
  br label %57

57:                                               ; preds = %56, %4
  ret void
}

; Function Attrs: inlinehint nounwind uwtable
define internal i32 @Abc_CostCubes(i64 noundef %0) #2 {
  %2 = alloca i64, align 8
  store i64 %0, ptr %2, align 8, !tbaa !3
  %3 = load i64, ptr %2, align 8, !tbaa !3
  %4 = lshr i64 %3, 32
  %5 = trunc i64 %4 to i32
  ret i32 %5
}

; Function Attrs: nounwind uwtable
define internal i64 @Abc_Isop8Cover(ptr noundef %0, ptr noundef %1, ptr noundef %2, i64 noundef %3, ptr noundef %4) #0 {
  %6 = alloca i64, align 8
  %7 = alloca ptr, align 8
  %8 = alloca ptr, align 8
  %9 = alloca ptr, align 8
  %10 = alloca i64, align 8
  %11 = alloca ptr, align 8
  %12 = alloca [2 x i64], align 16
  %13 = alloca [2 x i64], align 16
  %14 = alloca [2 x i64], align 16
  %15 = alloca [2 x i64], align 16
  %16 = alloca [2 x i64], align 16
  %17 = alloca i64, align 8
  %18 = alloca i64, align 8
  %19 = alloca i64, align 8
  %20 = alloca i32, align 4
  %21 = alloca i32, align 4
  store ptr %0, ptr %7, align 8, !tbaa !7
  store ptr %1, ptr %8, align 8, !tbaa !7
  store ptr %2, ptr %9, align 8, !tbaa !7
  store i64 %3, ptr %10, align 8, !tbaa !3
  store ptr %4, ptr %11, align 8, !tbaa !12
  call void @llvm.lifetime.start.p0(i64 16, ptr %12) #9
  call void @llvm.lifetime.start.p0(i64 16, ptr %13) #9
  call void @llvm.lifetime.start.p0(i64 16, ptr %14) #9
  call void @llvm.lifetime.start.p0(i64 16, ptr %15) #9
  call void @llvm.lifetime.start.p0(i64 16, ptr %16) #9
  call void @llvm.lifetime.start.p0(i64 8, ptr %17) #9
  call void @llvm.lifetime.start.p0(i64 8, ptr %18) #9
  call void @llvm.lifetime.start.p0(i64 8, ptr %19) #9
  call void @llvm.lifetime.start.p0(i64 4, ptr %20) #9
  store i32 7, ptr %20, align 4, !tbaa !10
  %22 = load ptr, ptr %7, align 8, !tbaa !7
  %23 = getelementptr inbounds i64, ptr %22, i64 0
  %24 = load i64, ptr %23, align 8, !tbaa !3
  %25 = load ptr, ptr %8, align 8, !tbaa !7
  %26 = getelementptr inbounds i64, ptr %25, i64 2
  %27 = load i64, ptr %26, align 8, !tbaa !3
  %28 = xor i64 %27, -1
  %29 = and i64 %24, %28
  %30 = getelementptr inbounds [2 x i64], ptr %12, i64 0, i64 0
  store i64 %29, ptr %30, align 16, !tbaa !3
  %31 = load ptr, ptr %7, align 8, !tbaa !7
  %32 = getelementptr inbounds i64, ptr %31, i64 1
  %33 = load i64, ptr %32, align 8, !tbaa !3
  %34 = load ptr, ptr %8, align 8, !tbaa !7
  %35 = getelementptr inbounds i64, ptr %34, i64 3
  %36 = load i64, ptr %35, align 8, !tbaa !3
  %37 = xor i64 %36, -1
  %38 = and i64 %33, %37
  %39 = getelementptr inbounds [2 x i64], ptr %12, i64 0, i64 1
  store i64 %38, ptr %39, align 8, !tbaa !3
  %40 = getelementptr inbounds [2 x i64], ptr %12, i64 0, i64 0
  %41 = load ptr, ptr %8, align 8, !tbaa !7
  %42 = getelementptr inbounds [2 x i64], ptr %14, i64 0, i64 0
  %43 = load i32, ptr %20, align 4, !tbaa !10
  %44 = load i64, ptr %10, align 8, !tbaa !3
  %45 = load ptr, ptr %11, align 8, !tbaa !12
  %46 = call i64 @Abc_IsopCheck(ptr noundef %40, ptr noundef %41, ptr noundef %42, i32 noundef %43, i64 noundef %44, ptr noundef %45)
  store i64 %46, ptr %17, align 8, !tbaa !3
  %47 = load i64, ptr %17, align 8, !tbaa !3
  %48 = load i64, ptr %10, align 8, !tbaa !3
  %49 = icmp uge i64 %47, %48
  br i1 %49, label %50, label %52

50:                                               ; preds = %5
  %51 = load i64, ptr %10, align 8, !tbaa !3
  store i64 %51, ptr %6, align 8
  store i32 1, ptr %21, align 4
  br label %221

52:                                               ; preds = %5
  %53 = load ptr, ptr %7, align 8, !tbaa !7
  %54 = getelementptr inbounds i64, ptr %53, i64 2
  %55 = load i64, ptr %54, align 8, !tbaa !3
  %56 = load ptr, ptr %8, align 8, !tbaa !7
  %57 = getelementptr inbounds i64, ptr %56, i64 0
  %58 = load i64, ptr %57, align 8, !tbaa !3
  %59 = xor i64 %58, -1
  %60 = and i64 %55, %59
  %61 = getelementptr inbounds [2 x i64], ptr %12, i64 0, i64 0
  store i64 %60, ptr %61, align 16, !tbaa !3
  %62 = load ptr, ptr %7, align 8, !tbaa !7
  %63 = getelementptr inbounds i64, ptr %62, i64 3
  %64 = load i64, ptr %63, align 8, !tbaa !3
  %65 = load ptr, ptr %8, align 8, !tbaa !7
  %66 = getelementptr inbounds i64, ptr %65, i64 1
  %67 = load i64, ptr %66, align 8, !tbaa !3
  %68 = xor i64 %67, -1
  %69 = and i64 %64, %68
  %70 = getelementptr inbounds [2 x i64], ptr %12, i64 0, i64 1
  store i64 %69, ptr %70, align 8, !tbaa !3
  %71 = getelementptr inbounds [2 x i64], ptr %12, i64 0, i64 0
  %72 = load ptr, ptr %8, align 8, !tbaa !7
  %73 = getelementptr inbounds i64, ptr %72, i64 2
  %74 = getelementptr inbounds [2 x i64], ptr %15, i64 0, i64 0
  %75 = load i32, ptr %20, align 4, !tbaa !10
  %76 = load i64, ptr %10, align 8, !tbaa !3
  %77 = load ptr, ptr %11, align 8, !tbaa !12
  %78 = icmp ne ptr %77, null
  br i1 %78, label %79, label %85

79:                                               ; preds = %52
  %80 = load ptr, ptr %11, align 8, !tbaa !12
  %81 = load i64, ptr %17, align 8, !tbaa !3
  %82 = call i32 @Abc_CostCubes(i64 noundef %81)
  %83 = sext i32 %82 to i64
  %84 = getelementptr inbounds i32, ptr %80, i64 %83
  br label %86

85:                                               ; preds = %52
  br label %86

86:                                               ; preds = %85, %79
  %87 = phi ptr [ %84, %79 ], [ null, %85 ]
  %88 = call i64 @Abc_IsopCheck(ptr noundef %71, ptr noundef %73, ptr noundef %74, i32 noundef %75, i64 noundef %76, ptr noundef %87)
  store i64 %88, ptr %18, align 8, !tbaa !3
  %89 = load i64, ptr %17, align 8, !tbaa !3
  %90 = load i64, ptr %18, align 8, !tbaa !3
  %91 = add i64 %89, %90
  %92 = load i64, ptr %10, align 8, !tbaa !3
  %93 = icmp uge i64 %91, %92
  br i1 %93, label %94, label %96

94:                                               ; preds = %86
  %95 = load i64, ptr %10, align 8, !tbaa !3
  store i64 %95, ptr %6, align 8
  store i32 1, ptr %21, align 4
  br label %221

96:                                               ; preds = %86
  %97 = load ptr, ptr %7, align 8, !tbaa !7
  %98 = getelementptr inbounds i64, ptr %97, i64 0
  %99 = load i64, ptr %98, align 8, !tbaa !3
  %100 = getelementptr inbounds [2 x i64], ptr %14, i64 0, i64 0
  %101 = load i64, ptr %100, align 16, !tbaa !3
  %102 = xor i64 %101, -1
  %103 = and i64 %99, %102
  %104 = load ptr, ptr %7, align 8, !tbaa !7
  %105 = getelementptr inbounds i64, ptr %104, i64 2
  %106 = load i64, ptr %105, align 8, !tbaa !3
  %107 = getelementptr inbounds [2 x i64], ptr %15, i64 0, i64 0
  %108 = load i64, ptr %107, align 16, !tbaa !3
  %109 = xor i64 %108, -1
  %110 = and i64 %106, %109
  %111 = or i64 %103, %110
  %112 = getelementptr inbounds [2 x i64], ptr %12, i64 0, i64 0
  store i64 %111, ptr %112, align 16, !tbaa !3
  %113 = load ptr, ptr %8, align 8, !tbaa !7
  %114 = getelementptr inbounds i64, ptr %113, i64 0
  %115 = load i64, ptr %114, align 8, !tbaa !3
  %116 = load ptr, ptr %8, align 8, !tbaa !7
  %117 = getelementptr inbounds i64, ptr %116, i64 2
  %118 = load i64, ptr %117, align 8, !tbaa !3
  %119 = and i64 %115, %118
  %120 = getelementptr inbounds [2 x i64], ptr %13, i64 0, i64 0
  store i64 %119, ptr %120, align 16, !tbaa !3
  %121 = load ptr, ptr %7, align 8, !tbaa !7
  %122 = getelementptr inbounds i64, ptr %121, i64 1
  %123 = load i64, ptr %122, align 8, !tbaa !3
  %124 = getelementptr inbounds [2 x i64], ptr %14, i64 0, i64 1
  %125 = load i64, ptr %124, align 8, !tbaa !3
  %126 = xor i64 %125, -1
  %127 = and i64 %123, %126
  %128 = load ptr, ptr %7, align 8, !tbaa !7
  %129 = getelementptr inbounds i64, ptr %128, i64 3
  %130 = load i64, ptr %129, align 8, !tbaa !3
  %131 = getelementptr inbounds [2 x i64], ptr %15, i64 0, i64 1
  %132 = load i64, ptr %131, align 8, !tbaa !3
  %133 = xor i64 %132, -1
  %134 = and i64 %130, %133
  %135 = or i64 %127, %134
  %136 = getelementptr inbounds [2 x i64], ptr %12, i64 0, i64 1
  store i64 %135, ptr %136, align 8, !tbaa !3
  %137 = load ptr, ptr %8, align 8, !tbaa !7
  %138 = getelementptr inbounds i64, ptr %137, i64 1
  %139 = load i64, ptr %138, align 8, !tbaa !3
  %140 = load ptr, ptr %8, align 8, !tbaa !7
  %141 = getelementptr inbounds i64, ptr %140, i64 3
  %142 = load i64, ptr %141, align 8, !tbaa !3
  %143 = and i64 %139, %142
  %144 = getelementptr inbounds [2 x i64], ptr %13, i64 0, i64 1
  store i64 %143, ptr %144, align 8, !tbaa !3
  %145 = getelementptr inbounds [2 x i64], ptr %12, i64 0, i64 0
  %146 = getelementptr inbounds [2 x i64], ptr %13, i64 0, i64 0
  %147 = getelementptr inbounds [2 x i64], ptr %16, i64 0, i64 0
  %148 = load i32, ptr %20, align 4, !tbaa !10
  %149 = load i64, ptr %10, align 8, !tbaa !3
  %150 = load ptr, ptr %11, align 8, !tbaa !12
  %151 = icmp ne ptr %150, null
  br i1 %151, label %152, label %162

152:                                              ; preds = %96
  %153 = load ptr, ptr %11, align 8, !tbaa !12
  %154 = load i64, ptr %17, align 8, !tbaa !3
  %155 = call i32 @Abc_CostCubes(i64 noundef %154)
  %156 = sext i32 %155 to i64
  %157 = getelementptr inbounds i32, ptr %153, i64 %156
  %158 = load i64, ptr %18, align 8, !tbaa !3
  %159 = call i32 @Abc_CostCubes(i64 noundef %158)
  %160 = sext i32 %159 to i64
  %161 = getelementptr inbounds i32, ptr %157, i64 %160
  br label %163

162:                                              ; preds = %96
  br label %163

163:                                              ; preds = %162, %152
  %164 = phi ptr [ %161, %152 ], [ null, %162 ]
  %165 = call i64 @Abc_IsopCheck(ptr noundef %145, ptr noundef %146, ptr noundef %147, i32 noundef %148, i64 noundef %149, ptr noundef %164)
  store i64 %165, ptr %19, align 8, !tbaa !3
  %166 = load i64, ptr %17, align 8, !tbaa !3
  %167 = load i64, ptr %18, align 8, !tbaa !3
  %168 = add i64 %166, %167
  %169 = load i64, ptr %19, align 8, !tbaa !3
  %170 = add i64 %168, %169
  %171 = load i64, ptr %10, align 8, !tbaa !3
  %172 = icmp uge i64 %170, %171
  br i1 %172, label %173, label %175

173:                                              ; preds = %163
  %174 = load i64, ptr %10, align 8, !tbaa !3
  store i64 %174, ptr %6, align 8
  store i32 1, ptr %21, align 4
  br label %221

175:                                              ; preds = %163
  %176 = getelementptr inbounds [2 x i64], ptr %16, i64 0, i64 0
  %177 = load i64, ptr %176, align 16, !tbaa !3
  %178 = getelementptr inbounds [2 x i64], ptr %14, i64 0, i64 0
  %179 = load i64, ptr %178, align 16, !tbaa !3
  %180 = or i64 %177, %179
  %181 = load ptr, ptr %9, align 8, !tbaa !7
  %182 = getelementptr inbounds i64, ptr %181, i64 0
  store i64 %180, ptr %182, align 8, !tbaa !3
  %183 = getelementptr inbounds [2 x i64], ptr %16, i64 0, i64 1
  %184 = load i64, ptr %183, align 8, !tbaa !3
  %185 = getelementptr inbounds [2 x i64], ptr %14, i64 0, i64 1
  %186 = load i64, ptr %185, align 8, !tbaa !3
  %187 = or i64 %184, %186
  %188 = load ptr, ptr %9, align 8, !tbaa !7
  %189 = getelementptr inbounds i64, ptr %188, i64 1
  store i64 %187, ptr %189, align 8, !tbaa !3
  %190 = getelementptr inbounds [2 x i64], ptr %16, i64 0, i64 0
  %191 = load i64, ptr %190, align 16, !tbaa !3
  %192 = getelementptr inbounds [2 x i64], ptr %15, i64 0, i64 0
  %193 = load i64, ptr %192, align 16, !tbaa !3
  %194 = or i64 %191, %193
  %195 = load ptr, ptr %9, align 8, !tbaa !7
  %196 = getelementptr inbounds i64, ptr %195, i64 2
  store i64 %194, ptr %196, align 8, !tbaa !3
  %197 = getelementptr inbounds [2 x i64], ptr %16, i64 0, i64 1
  %198 = load i64, ptr %197, align 8, !tbaa !3
  %199 = getelementptr inbounds [2 x i64], ptr %15, i64 0, i64 1
  %200 = load i64, ptr %199, align 8, !tbaa !3
  %201 = or i64 %198, %200
  %202 = load ptr, ptr %9, align 8, !tbaa !7
  %203 = getelementptr inbounds i64, ptr %202, i64 3
  store i64 %201, ptr %203, align 8, !tbaa !3
  %204 = load ptr, ptr %11, align 8, !tbaa !12
  %205 = load i64, ptr %17, align 8, !tbaa !3
  %206 = load i64, ptr %18, align 8, !tbaa !3
  %207 = load i32, ptr %20, align 4, !tbaa !10
  call void @Abc_IsopAddLits(ptr noundef %204, i64 noundef %205, i64 noundef %206, i32 noundef %207)
  %208 = load i64, ptr %17, align 8, !tbaa !3
  %209 = load i64, ptr %18, align 8, !tbaa !3
  %210 = add i64 %208, %209
  %211 = load i64, ptr %19, align 8, !tbaa !3
  %212 = add i64 %210, %211
  %213 = load i64, ptr %17, align 8, !tbaa !3
  %214 = call i32 @Abc_CostCubes(i64 noundef %213)
  %215 = sext i32 %214 to i64
  %216 = add i64 %212, %215
  %217 = load i64, ptr %18, align 8, !tbaa !3
  %218 = call i32 @Abc_CostCubes(i64 noundef %217)
  %219 = sext i32 %218 to i64
  %220 = add i64 %216, %219
  store i64 %220, ptr %6, align 8
  store i32 1, ptr %21, align 4
  br label %221

221:                                              ; preds = %175, %173, %94, %50
  call void @llvm.lifetime.end.p0(i64 4, ptr %20) #9
  call void @llvm.lifetime.end.p0(i64 8, ptr %19) #9
  call void @llvm.lifetime.end.p0(i64 8, ptr %18) #9
  call void @llvm.lifetime.end.p0(i64 8, ptr %17) #9
  call void @llvm.lifetime.end.p0(i64 16, ptr %16) #9
  call void @llvm.lifetime.end.p0(i64 16, ptr %15) #9
  call void @llvm.lifetime.end.p0(i64 16, ptr %14) #9
  call void @llvm.lifetime.end.p0(i64 16, ptr %13) #9
  call void @llvm.lifetime.end.p0(i64 16, ptr %12) #9
  %222 = load i64, ptr %6, align 8
  ret i64 %222
}