; Function Attrs: nounwind uwtable
define internal i64 @Abc_Isop8Cover(ptr noundef readonly captures(none) %0, ptr noundef %1, ptr noundef writeonly captures(none) %2, i64 noundef %3, ptr noundef %4) #2 {
  %6 = alloca [2 x i64], align 16
  %7 = alloca [2 x i64], align 16
  %8 = alloca [2 x i64], align 16
  %9 = alloca [2 x i64], align 16
  %10 = alloca [2 x i64], align 16
  call void @llvm.lifetime.start.p0(i64 16, ptr nonnull %6) #20
  call void @llvm.lifetime.start.p0(i64 16, ptr nonnull %7) #20
  call void @llvm.lifetime.start.p0(i64 16, ptr nonnull %8) #20
  call void @llvm.lifetime.start.p0(i64 16, ptr nonnull %9) #20
  call void @llvm.lifetime.start.p0(i64 16, ptr nonnull %10) #20
  %11 = load i64, ptr %0, align 8, !tbaa !3
  %12 = getelementptr inbounds nuw i8, ptr %1, i64 16
  %13 = load i64, ptr %12, align 8, !tbaa !3
  %14 = xor i64 %13, -1
  %15 = and i64 %11, %14
  store i64 %15, ptr %6, align 16, !tbaa !3
  %16 = getelementptr inbounds nuw i8, ptr %0, i64 8
  %17 = load i64, ptr %16, align 8, !tbaa !3
  %18 = getelementptr inbounds nuw i8, ptr %1, i64 24
  %19 = load i64, ptr %18, align 8, !tbaa !3
  %20 = xor i64 %19, -1
  %21 = and i64 %17, %20
  %22 = getelementptr inbounds nuw i8, ptr %6, i64 8
  store i64 %21, ptr %22, align 8, !tbaa !3
  %23 = call i64 @Abc_IsopCheck(ptr noundef nonnull %6, ptr noundef %1, ptr noundef nonnull %8, i32 noundef 7, i64 noundef %3, ptr noundef %4)
  %.not = icmp ult i64 %23, %3
  br i1 %.not, label %24, label %103

24:                                               ; preds = %5
  %25 = getelementptr inbounds nuw i8, ptr %0, i64 16
  %26 = load i64, ptr %25, align 8, !tbaa !3
  %27 = load i64, ptr %1, align 8, !tbaa !3
  %28 = xor i64 %27, -1
  %29 = and i64 %26, %28
  store i64 %29, ptr %6, align 16, !tbaa !3
  %30 = getelementptr inbounds nuw i8, ptr %0, i64 24
  %31 = load i64, ptr %30, align 8, !tbaa !3
  %32 = getelementptr inbounds nuw i8, ptr %1, i64 8
  %33 = load i64, ptr %32, align 8, !tbaa !3
  %34 = xor i64 %33, -1
  %35 = and i64 %31, %34
  store i64 %35, ptr %22, align 8, !tbaa !3
  %.not63 = icmp eq ptr %4, null
  %36 = ashr i64 %23, 32
  %37 = getelementptr i32, ptr %4, i64 %36
  %38 = select i1 %.not63, ptr null, ptr %37
  %39 = call i64 @Abc_IsopCheck(ptr noundef nonnull %6, ptr noundef nonnull %12, ptr noundef nonnull %9, i32 noundef 7, i64 noundef %3, ptr noundef %38)
  %40 = add i64 %39, %23
  %.not64 = icmp ult i64 %40, %3
  br i1 %.not64, label %41, label %103

41:                                               ; preds = %24
  %42 = load i64, ptr %0, align 8, !tbaa !3
  %43 = load i64, ptr %8, align 16, !tbaa !3
  %44 = xor i64 %43, -1
  %45 = and i64 %42, %44
  %46 = load i64, ptr %25, align 8, !tbaa !3
  %47 = load i64, ptr %9, align 16, !tbaa !3
  %48 = xor i64 %47, -1
  %49 = and i64 %46, %48
  %50 = or i64 %49, %45
  store i64 %50, ptr %6, align 16, !tbaa !3
  %51 = load i64, ptr %1, align 8, !tbaa !3
  %52 = load i64, ptr %12, align 8, !tbaa !3
  %53 = and i64 %52, %51
  store i64 %53, ptr %7, align 16, !tbaa !3
  %54 = load i64, ptr %16, align 8, !tbaa !3
  %55 = getelementptr inbounds nuw i8, ptr %8, i64 8
  %56 = load i64, ptr %55, align 8, !tbaa !3
  %57 = xor i64 %56, -1
  %58 = and i64 %54, %57
  %59 = load i64, ptr %30, align 8, !tbaa !3
  %60 = getelementptr inbounds nuw i8, ptr %9, i64 8
  %61 = load i64, ptr %60, align 8, !tbaa !3
  %62 = xor i64 %61, -1
  %63 = and i64 %59, %62
  %64 = or i64 %63, %58
  store i64 %64, ptr %22, align 8, !tbaa !3
  %65 = load i64, ptr %32, align 8, !tbaa !3
  %66 = load i64, ptr %18, align 8, !tbaa !3
  %67 = and i64 %66, %65
  %68 = getelementptr inbounds nuw i8, ptr %7, i64 8
  store i64 %67, ptr %68, align 8, !tbaa !3
  %69 = ashr i64 %39, 32
  %70 = getelementptr inbounds i32, ptr %37, i64 %69
  %71 = select i1 %.not63, ptr null, ptr %70
  %72 = call i64 @Abc_IsopCheck(ptr noundef nonnull %6, ptr noundef nonnull %7, ptr noundef nonnull %10, i32 noundef 7, i64 noundef %3, ptr noundef %71)
  %73 = add i64 %72, %40
  %.not65 = icmp ult i64 %73, %3
  br i1 %.not65, label %74, label %103

74:                                               ; preds = %41
  %75 = load i64, ptr %10, align 16, !tbaa !3
  %76 = load i64, ptr %8, align 16, !tbaa !3
  %77 = or i64 %76, %75
  store i64 %77, ptr %2, align 8, !tbaa !3
  %78 = getelementptr inbounds nuw i8, ptr %10, i64 8
  %79 = load i64, ptr %78, align 8, !tbaa !3
  %80 = load i64, ptr %55, align 8, !tbaa !3
  %81 = or i64 %80, %79
  %82 = getelementptr inbounds nuw i8, ptr %2, i64 8
  store i64 %81, ptr %82, align 8, !tbaa !3
  %83 = load i64, ptr %9, align 16, !tbaa !3
  %84 = or i64 %83, %75
  %85 = getelementptr inbounds nuw i8, ptr %2, i64 16
  store i64 %84, ptr %85, align 8, !tbaa !3
  %86 = load i64, ptr %60, align 8, !tbaa !3
  %87 = or i64 %86, %79
  %88 = getelementptr inbounds nuw i8, ptr %2, i64 24
  store i64 %87, ptr %88, align 8, !tbaa !3
  br i1 %.not63, label %Abc_IsopAddLits.exit, label %89

89:                                               ; preds = %74
  %90 = lshr i64 %23, 32
  %91 = trunc nuw i64 %90 to i32
  %92 = lshr i64 %39, 32
  %93 = trunc nuw i64 %92 to i32
  %94 = icmp sgt i32 %91, 0
  br i1 %94, label %.lr.ph.i, label %.preheader.i

.preheader.i:                                     ; preds = %.lr.ph.i, %89
  %95 = icmp sgt i32 %93, 0
  br i1 %95, label %.lr.ph19.i, label %Abc_IsopAddLits.exit

.lr.ph.i:                                         ; preds = %89, %.lr.ph.i
  %indvars.iv.i = phi i64 [ %indvars.iv.next.i, %.lr.ph.i ], [ 0, %89 ]
  %96 = getelementptr inbounds nuw i32, ptr %4, i64 %indvars.iv.i
  %97 = load i32, ptr %96, align 4, !tbaa !7
  %98 = or i32 %97, 16384
  store i32 %98, ptr %96, align 4, !tbaa !7
  %indvars.iv.next.i = add nuw nsw i64 %indvars.iv.i, 1
  %exitcond.not.i = icmp eq i64 %indvars.iv.next.i, %90
  br i1 %exitcond.not.i, label %.preheader.i, label %.lr.ph.i, !llvm.loop !11

.lr.ph19.i:                                       ; preds = %.preheader.i, %.lr.ph19.i
  %indvars.iv21.i = phi i64 [ %indvars.iv.next22.i, %.lr.ph19.i ], [ 0, %.preheader.i ]
  %gep.i = getelementptr i32, ptr %37, i64 %indvars.iv21.i
  %99 = load i32, ptr %gep.i, align 4, !tbaa !7
  %100 = or i32 %99, 32768
  store i32 %100, ptr %gep.i, align 4, !tbaa !7
  %indvars.iv.next22.i = add nuw nsw i64 %indvars.iv21.i, 1
  %exitcond25.not.i = icmp eq i64 %indvars.iv.next22.i, %92
  br i1 %exitcond25.not.i, label %Abc_IsopAddLits.exit, label %.lr.ph19.i, !llvm.loop !12

Abc_IsopAddLits.exit:                             ; preds = %.lr.ph19.i, %74, %.preheader.i
  %101 = add nsw i64 %69, %36
  %102 = add i64 %101, %73
  br label %103

103:                                              ; preds = %41, %24, %5, %Abc_IsopAddLits.exit
  %.0 = phi i64 [ %102, %Abc_IsopAddLits.exit ], [ %3, %5 ], [ %3, %24 ], [ %3, %41 ]
  call void @llvm.lifetime.end.p0(i64 16, ptr nonnull %10) #20
  call void @llvm.lifetime.end.p0(i64 16, ptr nonnull %9) #20
  call void @llvm.lifetime.end.p0(i64 16, ptr nonnull %8) #20
  call void @llvm.lifetime.end.p0(i64 16, ptr nonnull %7) #20
  call void @llvm.lifetime.end.p0(i64 16, ptr nonnull %6) #20
  ret i64 %.0
}